Certificate:
    Data:
        Version: 3 (0x2)
        Serial Number: 4370 (0x1112)
        Signature Algorithm: sha256WithRSAEncryption
        Issuer: C=CZ, O=TLSA Test CA, CN=tlsa-test
        Validity
            Not Before: Sep 27 11:38:41 2012 GMT
            Not After : Sep 27 11:38:41 2013 GMT
        Subject: C=CZ, O=TLSA Test Server1, CN=tlsa-test
        Subject Public Key Info:
            Public Key Algorithm: rsaEncryption
                Public-Key: (2048 bit)
                Modulus:
                    00:c7:7a:56:ca:ea:e8:56:fb:14:b2:80:b4:33:46:
                    1a:97:05:c9:5b:e3:9f:8d:e2:f3:f8:c5:cb:a0:e8:
                    4f:29:e8:87:19:54:1b:ef:cf:d3:6d:0f:df:36:66:
                    38:c9:1e:f5:22:07:f8:98:a5:18:2b:bc:3e:e1:2a:
                    18:4c:2c:81:cd:a1:0a:32:af:23:7d:55:21:d1:c2:
                    92:f4:b9:32:e9:c3:ab:07:b8:cb:9b:fd:8c:e0:c5:
                    71:ce:6d:69:3e:de:6f:e7:b3:29:28:33:dd:f0:47:
                    96:f5:76:8c:c8:f2:6c:e3:5a:95:cf:99:b2:21:ee:
                    7e:9a:9a:08:af:88:b0:b8:04:ce:1d:e1:04:c1:93:
                    ea:03:7c:80:b2:38:94:ec:c7:32:51:80:e3:34:75:
                    57:24:c5:d5:7a:bb:0e:64:4f:11:36:1f:66:b8:ae:
                    dc:c7:3a:91:c8:ba:aa:c8:b2:d5:ac:d9:76:a5:97:
                    be:bd:8b:6e:d1:55:a4:63:ba:d0:63:82:d8:28:0f:
                    c0:e0:d1:bf:52:d8:94:8b:39:91:2a:ff:37:1d:b3:
                    81:a0:bb:10:02:55:01:ce:3d:58:04:d2:f2:d1:88:
                    56:fa:43:0b:14:ab:7d:dd:70:5c:ea:1d:e2:3c:3d:
                    8f:fc:8e:49:9b:bf:57:30:9e:f9:a9:70:2c:6a:96:
                    5c:fb
                Exponent: 65537 (0x10001)
        X509v3 extensions:
            X509v3 Basic Constraints: 
                CA:FALSE
            Netscape Comment: 
                OpenSSL Generated Certificate
            X509v3 Subject Key Identifier: 
                4C:F9:A3:74:58:29:0E:1C:73:D9:32:DD:18:93:28:3D:C4:18:6A:E8
            X509v3 Authority Key Identifier: 
                keyid:41:5A:8B:B6:EE:66:C1:46:BC:CB:54:C2:4C:56:84:E1:89:13:29:4A
                DirName:/C=CZ/O=TLSA Test CA/CN=tlsa-test
                serial:FE:02:13:52:A7:D3:46:21

    Signature Algorithm: sha256WithRSAEncryption
        86:3f:31:13:5c:38:df:b3:99:c1:c9:cb:ac:0e:fd:a0:63:7d:
        a5:51:b7:83:98:89:46:12:81:dc:cb:2e:c1:6d:8e:a4:9a:f9:
        d7:0d:37:db:c4:83:e3:23:f9:ba:d5:28:eb:fc:73:c7:54:56:
        b0:a7:51:e1:03:bc:0b:b9:8e:b3:ed:7b:db:a7:b0:e0:f9:8b:
        38:f4:2a:43:17:c6:09:57:16:96:1c:2a:12:88:cf:b7:20:c8:
        12:47:4b:33:25:8f:ee:59:72:8b:98:d6:86:a0:6f:c5:fb:30:
        00:31:b7:02:80:02:b6:dc:0c:a4:4a:02:95:d6:11:19:3c:1a:
        f7:1c:a1:6c:a7:cd:9e:63:4e:e3:41:14:57:2f:69:e5:92:c3:
        7c:18:40:e7:3c:bc:d0:a4:f7:24:b9:34:97:a1:19:cf:32:ef:
        d2:77:26:3e:3a:7f:93:47:71:99:8e:3d:82:51:0e:fe:f9:2b:
        3b:ac:1f:15:d0:2e:c9:0e:b3:18:45:ee:b4:88:19:ef:45:ea:
        ea:91:f5:fc:35:dd:cd:e5:e7:7f:4d:f8:c5:59:f7:5f:e8:1f:
        0b:eb:1c:40:bc:57:8b:84:72:6b:14:08:9c:ab:4d:fd:ec:13:
        3d:ae:e0:d6:38:48:d5:0a:2d:fb:43:8c:7f:37:d4:79:86:41:
        fb:72:7d:a8:56:fd:b2:f9:bf:5f:a5:d8:20:a4:d1:67:13:09:
        5b:e9:c2:e1:f3:f0:3b:e3:19:0c:67:61:b3:56:e6:e5:8a:0b:
        48:f8:5d:16:f9:65:59:86:23:ed:6d:3f:1b:44:c8:24:67:f3:
        8b:e7:19:bc:d8:e1:f6:6a:58:4d:e9:7d:da:1a:06:19:3d:d4:
        54:31:32:ed:f7:90:46:a3:56:04:b0:2a:b7:d9:e0:8b:e6:f7:
        71:fa:93:c6:7a:30:c6:08:a6:02:3f:f8:1d:d0:80:f3:a3:0b:
        a4:9b:5b:42:a9:94:bc:62:41:46:fc:28:86:70:20:7e:c1:18:
        52:5d:af:ca:45:03:9a:7a:e3:51:03:3b:e0:b4:d6:88:89:58:
        69:d1:5b:09:d8:9e:de:a8:94:fc:f7:cd:24:4c:4e:ec:26:42:
        d3:4a:c6:0d:f2:a6:33:d5:27:0b:be:4a:ed:8a:21:2f:e7:bb:
        ec:91:6c:e4:d2:4d:ca:64:90:8a:46:7e:30:34:28:ee:c2:d4:
        31:68:6c:70:89:e2:d2:93:ca:54:58:bf:f7:af:02:68:ca:21:
        92:60:f3:9c:19:35:bc:2a:5a:2c:0f:28:59:6b:71:31:8c:92:
        ec:f9:8c:f4:77:6e:c5:8f:64:99:0d:fc:ab:2f:b8:a2:b0:d9:
        df:c6:2d:e2:ce:60:7d:f1
-----BEGIN CERTIFICATE-----
MIIEtzCCAp+gAwIBAgICERIwDQYJKoZIhvcNAQELBQAwODELMAkGA1UEBhMCQ1ox
FTATBgNVBAoMDFRMU0EgVGVzdCBDQTESMBAGA1UEAwwJdGxzYS10ZXN0MB4XDTEy
MDkyNzExMzg0MVoXDTEzMDkyNzExMzg0MVowPTELMAkGA1UEBhMCQ1oxGjAYBgNV
BAoMEVRMU0EgVGVzdCBTZXJ2ZXIxMRIwEAYDVQQDDAl0bHNhLXRlc3QwggEiMA0G
CSqGSIb3DQEBAQUAA4IBDwAwggEKAoIBAQDHelbK6uhW+xSygLQzRhqXBclb45+N
4vP4xcug6E8p6IcZVBvvz9NtD982ZjjJHvUiB/iYpRgrvD7hKhhMLIHNoQoyryN9
VSHRwpL0uTLpw6sHuMub/YzgxXHObWk+3m/nsykoM93wR5b1dozI8mzjWpXPmbIh
7n6amgiviLC4BM4d4QTBk+oDfICyOJTsxzJRgOM0dVckxdV6uw5kTxE2H2a4rtzH
OpHIuqrIstWs2Xall769i27RVaRjutBjgtgoD8Dg0b9S2JSLOZEq/zcds4GguxAC
VQHOPVgE0vLRiFb6QwsUq33dcFzqHeI8PY/8jkmbv1cwnvmpcCxqllz7AgMBAAGj
gcUwgcIwCQYDVR0TBAIwADAsBglghkgBhvhCAQ0EHxYdT3BlblNTTCBHZW5lcmF0
ZWQgQ2VydGlmaWNhdGUwHQYDVR0OBBYEFEz5o3RYKQ4cc9ky3RiTKD3EGGroMGgG
A1UdIwRhMF+AFEFai7buZsFGvMtUwkxWhOGJEylKoTykOjA4MQswCQYDVQQGEwJD
WjEVMBMGA1UECgwMVExTQSBUZXN0IENBMRIwEAYDVQQDDAl0bHNhLXRlc3SCCQD+
AhNSp9NGITANBgkqhkiG9w0BAQsFAAOCAgEAhj8xE1w437OZwcnLrA79oGN9pVG3
g5iJRhKB3MsuwW2OpJr51w0328SD4yP5utUo6/xzx1RWsKdR4QO8C7mOs+1726ew
4PmLOPQqQxfGCVcWlhwqEojPtyDIEkdLMyWP7llyi5jWhqBvxfswADG3AoACttwM
pEoCldYRGTwa9xyhbKfNnmNO40EUVy9p5ZLDfBhA5zy80KT3JLk0l6EZzzLv0ncm
Pjp/k0dxmY49glEO/vkrO6wfFdAuyQ6zGEXutIgZ70Xq6pH1/DXdzeXnf034xVn3
X+gfC+scQLxXi4RyaxQInKtN/ewTPa7g1jhI1Qot+0OMfzfUeYZB+3J9qFb9svm/
X6XYIKTRZxMJW+nC4fPwO+MZDGdhs1bm5YoLSPhdFvllWYYj7W0/G0TIJGfzi+cZ
vNjh9mpYTel92hoGGT3UVDEy7feQRqNWBLAqt9ngi+b3cfqTxnowxgimAj/4HdCA
86MLpJtbQqmUvGJBRvwohnAgfsEYUl2vykUDmnrjUQM74LTWiIlYadFbCdie3qiU
/PfNJExO7CZC00rGDfKmM9UnC75K7YohL+e77JFs5NJNymSQikZ+MDQo7sLUMWhs
cIni0pPKVFi/968CaMohkmDznBk1vCpaLA8oWWtxMYyS7PmM9HduxY9kmQ38qy+4
orDZ38Yt4s5gffE=
-----END CERTIFICATE-----
